target datalayout = "e-m:e-p270:32:32-p271:32:32-p272:64:64-i64:64-i128:128-f80:128-n8:16:32:64-S128"
target triple = "x86_64-pc-linux-gnu"

%struct.SDL_Window = type { i32, ptr, ptr, i32, i32, i32, i32, i32, i32, i32, i32, float, float, i32, i32, i64, i64, float, i8, i8, i32, i32, %struct.SDL_Rect, %struct.SDL_Rect, %struct.SDL_Rect, i8, i8, i8, %struct.SDL_DisplayMode, %struct.SDL_DisplayMode, %struct.SDL_HDROutputProperties, float, ptr, i8, i8, i8, i8, i8, i8, i8, i8, i8, i32, i32, i32, i32, %struct.SDL_Rect, i32, i8, %struct.SDL_Rect, i32, %struct.SDL_Rect, ptr, ptr, i32, float, i32, i32, ptr, ptr, ptr, ptr, ptr, ptr, ptr, ptr, ptr }
%struct.SDL_DisplayMode = type { i32, i32, i32, i32, float, float, i32, i32, ptr }
%struct.SDL_HDROutputProperties = type { float, float }
%struct.SDL_Rect = type { i32, i32, i32, i32 }

@.str.1 = private unnamed_addr constant [41 x i8] c"Video subsystem has not been initialized\00", align 1
@_this = internal global ptr null, align 8
@.str.20 = private unnamed_addr constant [15 x i8] c"Invalid window\00", align 1

; Function Attrs: nounwind uwtable
define hidden zeroext i1 @SDL_GetWindowRelativeMouseMode_REAL(ptr noundef %0) #0 {
  %2 = alloca i1, align 1
  %3 = alloca ptr, align 8
  store ptr %0, ptr %3, align 8
  %4 = load ptr, ptr @_this, align 8
  %5 = icmp ne ptr %4, null
  br i1 %5, label %8, label %6

6:                                                ; preds = %1
  %7 = call zeroext i1 @SDL_UninitializedVideo()
  store i1 false, ptr %2, align 1
  br label %21

8:                                                ; preds = %1
  %9 = load ptr, ptr %3, align 8
  %10 = call zeroext i1 @SDL_ObjectValid(ptr noundef %9, i32 noundef 1)
  br i1 %10, label %13, label %11

11:                                               ; preds = %8
  %12 = call zeroext i1 (ptr, ...) @SDL_SetError_REAL(ptr noundef @.str.20)
  store i1 false, ptr %2, align 1
  br label %21

13:                                               ; preds = %8
  %14 = load ptr, ptr %3, align 8
  %15 = getelementptr inbounds nuw %struct.SDL_Window, ptr %14, i32 0, i32 15
  %16 = load i64, ptr %15, align 8
  %17 = and i64 %16, 32768
  %18 = icmp ne i64 %17, 0
  br i1 %18, label %19, label %20

19:                                               ; preds = %13
  store i1 true, ptr %2, align 1
  br label %21

20:                                               ; preds = %13
  store i1 false, ptr %2, align 1
  br label %21

21:                                               ; preds = %20, %19, %11, %6
  %22 = load i1, ptr %2, align 1
  ret i1 %22
}

; Function Attrs: nounwind uwtable
define hidden zeroext i1 @SDL_UninitializedVideo() #0 {
  %1 = call zeroext i1 (ptr, ...) @SDL_SetError_REAL(ptr noundef @.str.1)
  ret i1 %1
}

; Function Attrs: nounwind uwtable
define hidden zeroext i1 @SDL_SetWindowRelativeMouseMode_REAL(ptr noundef %0, i1 noundef zeroext %1) #0 {
  %3 = alloca i1, align 1
  %4 = alloca ptr, align 8
  %5 = alloca i8, align 1
  store ptr %0, ptr %4, align 8
  %6 = zext i1 %1 to i8
  store i8 %6, ptr %5, align 1
  %7 = load ptr, ptr @_this, align 8
  %8 = icmp ne ptr %7, null
  br i1 %8, label %11, label %9

9:                                                ; preds = %2
  %10 = call zeroext i1 @SDL_UninitializedVideo()
  store i1 false, ptr %3, align 1
  br label %39

11:                                               ; preds = %2
  %12 = load ptr, ptr %4, align 8
  %13 = call zeroext i1 @SDL_ObjectValid(ptr noundef %12, i32 noundef 1)
  br i1 %13, label %16, label %14

14:                                               ; preds = %11
  %15 = call zeroext i1 (ptr, ...) @SDL_SetError_REAL(ptr noundef @.str.20)
  store i1 false, ptr %3, align 1
  br label %39

16:                                               ; preds = %11
  call void @SDL_DisableMouseWarpEmulation()
  %17 = load i8, ptr %5, align 1, !range !5, !noundef !6
  %18 = trunc i8 %17 to i1
  %19 = zext i1 %18 to i32
  %20 = load ptr, ptr %4, align 8
  %21 = call zeroext i1 @SDL_GetWindowRelativeMouseMode_REAL(ptr noundef %20)
  %22 = zext i1 %21 to i32
  %23 = icmp eq i32 %19, %22
  br i1 %23, label %24, label %25

24:                                               ; preds = %16
  store i1 true, ptr %3, align 1
  br label %39

25:                                               ; preds = %16
  %26 = load i8, ptr %5, align 1, !range !5, !noundef !6
  %27 = trunc i8 %26 to i1
  br i1 %27, label %28, label %33

28:                                               ; preds = %25
  %29 = load ptr, ptr %4, align 8
  %30 = getelementptr inbounds nuw %struct.SDL_Window, ptr %29, i32 0, i32 15
  %31 = load i64, ptr %30, align 8
  %32 = or i64 %31, 32768
  store i64 %32, ptr %30, align 8
  br label %38

33:                                               ; preds = %25
  %34 = load ptr, ptr %4, align 8
  %35 = getelementptr inbounds nuw %struct.SDL_Window, ptr %34, i32 0, i32 15
  %36 = load i64, ptr %35, align 8
  %37 = and i64 %36, -32769
  store i64 %37, ptr %35, align 8
  br label %38

38:                                               ; preds = %33, %28
  call void @SDL_UpdateRelativeMouseMode()
  store i1 true, ptr %3, align 1
  br label %39

39:                                               ; preds = %38, %24, %14, %9
  %40 = load i1, ptr %3, align 1
  ret i1 %40
}