; Function Attrs: nounwind uwtable
define hidden noundef zeroext i1 @SDL_SetWindowRelativeMouseMode_REAL(ptr noundef %0, i1 noundef zeroext %1) local_unnamed_addr #0 {
  %3 = load ptr, ptr @_this, align 8
  %.not = icmp eq ptr %3, null
  br i1 %.not, label %4, label %6

4:                                                ; preds = %2
  %5 = tail call zeroext i1 (ptr, ...) @SDL_SetError_REAL(ptr noundef nonnull @.str.1) #19
  br label %26

6:                                                ; preds = %2
  %7 = tail call zeroext i1 @SDL_ObjectValid(ptr noundef %0, i32 noundef 1) #19
  br i1 %7, label %10, label %8

8:                                                ; preds = %6
  %9 = tail call zeroext i1 (ptr, ...) @SDL_SetError_REAL(ptr noundef nonnull @.str.20) #19
  br label %26

10:                                               ; preds = %6
  tail call void @SDL_DisableMouseWarpEmulation() #19
  %11 = load ptr, ptr @_this, align 8
  %.not.i = icmp eq ptr %11, null
  br i1 %.not.i, label %SDL_GetWindowRelativeMouseMode_REAL.exit.thr_comm, label %12

12:                                               ; preds = %10
  %13 = tail call zeroext i1 @SDL_ObjectValid(ptr noundef %0, i32 noundef 1) #19
  br i1 %13, label %SDL_GetWindowRelativeMouseMode_REAL.exit, label %SDL_GetWindowRelativeMouseMode_REAL.exit.thr_comm

SDL_GetWindowRelativeMouseMode_REAL.exit.thr_comm: ; preds = %12, %10
  %.str.1.sink = phi ptr [ @.str.1, %10 ], [ @.str.20, %12 ]
  %14 = tail call zeroext i1 (ptr, ...) @SDL_SetError_REAL(ptr noundef nonnull %.str.1.sink) #19
  br i1 %1, label %SDL_GetWindowRelativeMouseMode_REAL.exit.thr_comm..thread_crit_edge, label %26

SDL_GetWindowRelativeMouseMode_REAL.exit.thr_comm..thread_crit_edge: ; preds = %SDL_GetWindowRelativeMouseMode_REAL.exit.thr_comm
  %.phi.trans.insert = getelementptr inbounds nuw i8, ptr %0, i64 72
  %.pre = load i64, ptr %.phi.trans.insert, align 8
  br label %.thread

SDL_GetWindowRelativeMouseMode_REAL.exit:         ; preds = %12
  %15 = getelementptr inbounds nuw i8, ptr %0, i64 72
  %16 = load i64, ptr %15, align 8
  %17 = and i64 %16, 32768
  %.not3.i = icmp ne i64 %17, 0
  %18 = xor i1 %1, %.not3.i
  br i1 %18, label %19, label %26

19:                                               ; preds = %SDL_GetWindowRelativeMouseMode_REAL.exit
  br i1 %1, label %.thread, label %23

.thread:                                          ; preds = %SDL_GetWindowRelativeMouseMode_REAL.exit.thr_comm..thread_crit_edge, %19
  %20 = phi i64 [ %.pre, %SDL_GetWindowRelativeMouseMode_REAL.exit.thr_comm..thread_crit_edge ], [ %16, %19 ]
  %21 = getelementptr inbounds nuw i8, ptr %0, i64 72
  %22 = or i64 %20, 32768
  store i64 %22, ptr %21, align 8
  br label %25

23:                                               ; preds = %19
  %24 = and i64 %16, -32769
  store i64 %24, ptr %15, align 8
  br label %25

25:                                               ; preds = %23, %.thread
  tail call void @SDL_UpdateRelativeMouseMode() #19
  br label %26

26:                                               ; preds = %SDL_GetWindowRelativeMouseMode_REAL.exit.thr_comm, %SDL_GetWindowRelativeMouseMode_REAL.exit, %25, %8, %4
  %.0 = phi i1 [ true, %25 ], [ false, %8 ], [ false, %4 ], [ true, %SDL_GetWindowRelativeMouseMode_REAL.exit ], [ true, %SDL_GetWindowRelativeMouseMode_REAL.exit.thr_comm ]
  ret i1 %.0
}